target datalayout = "e-m:e-p270:32:32-p271:32:32-p272:64:64-i64:64-i128:128-f80:128-n8:16:32:64-S128"
target triple = "x86_64-pc-linux-gnu"

%struct.ldmRollingHashState_t = type { i64, i64 }

; Function Attrs: nounwind uwtable
define internal i64 @ZSTD_ldm_gear_feed(ptr noundef %0, ptr noundef %1, i64 noundef %2, ptr noundef %3, ptr noundef %4) #0 {
  %6 = alloca ptr, align 8
  %7 = alloca ptr, align 8
  %8 = alloca i64, align 8
  %9 = alloca ptr, align 8
  %10 = alloca ptr, align 8
  %11 = alloca i64, align 8
  %12 = alloca i64, align 8
  %13 = alloca i64, align 8
  store ptr %0, ptr %6, align 8
  store ptr %1, ptr %7, align 8
  store i64 %2, ptr %8, align 8
  store ptr %3, ptr %9, align 8
  store ptr %4, ptr %10, align 8
  %14 = load ptr, ptr %6, align 8
  %15 = getelementptr inbounds %struct.ldmRollingHashState_t, ptr %14, i32 0, i32 0
  %16 = load i64, ptr %15, align 8
  store i64 %16, ptr %12, align 8
  %17 = load ptr, ptr %6, align 8
  %18 = getelementptr inbounds %struct.ldmRollingHashState_t, ptr %17, i32 0, i32 1
  %19 = load i64, ptr %18, align 8
  store i64 %19, ptr %13, align 8
  store i64 0, ptr %11, align 8
  br label %20

20:                                               ; preds = %181, %5
  %21 = load i64, ptr %11, align 8
  %22 = add i64 %21, 3
  %23 = load i64, ptr %8, align 8
  %24 = icmp ult i64 %22, %23
  br i1 %24, label %25, label %182

25:                                               ; preds = %20
  br label %26

26:                                               ; preds = %25
  %27 = load i64, ptr %12, align 8
  %28 = shl i64 %27, 1
  %29 = load ptr, ptr %7, align 8
  %30 = load i64, ptr %11, align 8
  %31 = getelementptr inbounds i8, ptr %29, i64 %30
  %32 = load i8, ptr %31, align 1
  %33 = zext i8 %32 to i32
  %34 = and i32 %33, 255
  %35 = sext i32 %34 to i64
  %36 = getelementptr inbounds [256 x i64], ptr @ZSTD_ldm_gearTab, i64 0, i64 %35
  %37 = load i64, ptr %36, align 8
  %38 = add i64 %28, %37
  store i64 %38, ptr %12, align 8
  %39 = load i64, ptr %11, align 8
  %40 = add i64 %39, 1
  store i64 %40, ptr %11, align 8
  %41 = load i64, ptr %12, align 8
  %42 = load i64, ptr %13, align 8
  %43 = and i64 %41, %42
  %44 = icmp eq i64 %43, 0
  %45 = zext i1 %44 to i32
  %46 = sext i32 %45 to i64
  %47 = icmp ne i64 %46, 0
  br i1 %47, label %48, label %63

48:                                               ; preds = %26
  %49 = load i64, ptr %11, align 8
  %50 = load ptr, ptr %9, align 8
  %51 = load ptr, ptr %10, align 8
  %52 = load i32, ptr %51, align 4
  %53 = zext i32 %52 to i64
  %54 = getelementptr inbounds i64, ptr %50, i64 %53
  store i64 %49, ptr %54, align 8
  %55 = load ptr, ptr %10, align 8
  %56 = load i32, ptr %55, align 4
  %57 = add i32 %56, 1
  store i32 %57, ptr %55, align 4
  %58 = load ptr, ptr %10, align 8
  %59 = load i32, ptr %58, align 4
  %60 = icmp eq i32 %59, 64
  br i1 %60, label %61, label %62

61:                                               ; preds = %48
  br label %228

62:                                               ; preds = %48
  br label %63

63:                                               ; preds = %62, %26
  br label %64

64:                                               ; preds = %63
  br label %65

65:                                               ; preds = %64
  %66 = load i64, ptr %12, align 8
  %67 = shl i64 %66, 1
  %68 = load ptr, ptr %7, align 8
  %69 = load i64, ptr %11, align 8
  %70 = getelementptr inbounds i8, ptr %68, i64 %69
  %71 = load i8, ptr %70, align 1
  %72 = zext i8 %71 to i32
  %73 = and i32 %72, 255
  %74 = sext i32 %73 to i64
  %75 = getelementptr inbounds [256 x i64], ptr @ZSTD_ldm_gearTab, i64 0, i64 %74
  %76 = load i64, ptr %75, align 8
  %77 = add i64 %67, %76
  store i64 %77, ptr %12, align 8
  %78 = load i64, ptr %11, align 8
  %79 = add i64 %78, 1
  store i64 %79, ptr %11, align 8
  %80 = load i64, ptr %12, align 8
  %81 = load i64, ptr %13, align 8
  %82 = and i64 %80, %81
  %83 = icmp eq i64 %82, 0
  %84 = zext i1 %83 to i32
  %85 = sext i32 %84 to i64
  %86 = icmp ne i64 %85, 0
  br i1 %86, label %87, label %102

87:                                               ; preds = %65
  %88 = load i64, ptr %11, align 8
  %89 = load ptr, ptr %9, align 8
  %90 = load ptr, ptr %10, align 8
  %91 = load i32, ptr %90, align 4
  %92 = zext i32 %91 to i64
  %93 = getelementptr inbounds i64, ptr %89, i64 %92
  store i64 %88, ptr %93, align 8
  %94 = load ptr, ptr %10, align 8
  %95 = load i32, ptr %94, align 4
  %96 = add i32 %95, 1
  store i32 %96, ptr %94, align 4
  %97 = load ptr, ptr %10, align 8
  %98 = load i32, ptr %97, align 4
  %99 = icmp eq i32 %98, 64
  br i1 %99, label %100, label %101

100:                                              ; preds = %87
  br label %228

101:                                              ; preds = %87
  br label %102

102:                                              ; preds = %101, %65
  br label %103

103:                                              ; preds = %102
  br label %104

104:                                              ; preds = %103
  %105 = load i64, ptr %12, align 8
  %106 = shl i64 %105, 1
  %107 = load ptr, ptr %7, align 8
  %108 = load i64, ptr %11, align 8
  %109 = getelementptr inbounds i8, ptr %107, i64 %108
  %110 = load i8, ptr %109, align 1
  %111 = zext i8 %110 to i32
  %112 = and i32 %111, 255
  %113 = sext i32 %112 to i64
  %114 = getelementptr inbounds [256 x i64], ptr @ZSTD_ldm_gearTab, i64 0, i64 %113
  %115 = load i64, ptr %114, align 8
  %116 = add i64 %106, %115
  store i64 %116, ptr %12, align 8
  %117 = load i64, ptr %11, align 8
  %118 = add i64 %117, 1
  store i64 %118, ptr %11, align 8
  %119 = load i64, ptr %12, align 8
  %120 = load i64, ptr %13, align 8
  %121 = and i64 %119, %120
  %122 = icmp eq i64 %121, 0
  %123 = zext i1 %122 to i32
  %124 = sext i32 %123 to i64
  %125 = icmp ne i64 %124, 0
  br i1 %125, label %126, label %141

126:                                              ; preds = %104
  %127 = load i64, ptr %11, align 8
  %128 = load ptr, ptr %9, align 8
  %129 = load ptr, ptr %10, align 8
  %130 = load i32, ptr %129, align 4
  %131 = zext i32 %130 to i64
  %132 = getelementptr inbounds i64, ptr %128, i64 %131
  store i64 %127, ptr %132, align 8
  %133 = load ptr, ptr %10, align 8
  %134 = load i32, ptr %133, align 4
  %135 = add i32 %134, 1
  store i32 %135, ptr %133, align 4
  %136 = load ptr, ptr %10, align 8
  %137 = load i32, ptr %136, align 4
  %138 = icmp eq i32 %137, 64
  br i1 %138, label %139, label %140

139:                                              ; preds = %126
  br label %228

140:                                              ; preds = %126
  br label %141

141:                                              ; preds = %140, %104
  br label %142

142:                                              ; preds = %141
  br label %143

143:                                              ; preds = %142
  %144 = load i64, ptr %12, align 8
  %145 = shl i64 %144, 1
  %146 = load ptr, ptr %7, align 8
  %147 = load i64, ptr %11, align 8
  %148 = getelementptr inbounds i8, ptr %146, i64 %147
  %149 = load i8, ptr %148, align 1
  %150 = zext i8 %149 to i32
  %151 = and i32 %150, 255
  %152 = sext i32 %151 to i64
  %153 = getelementptr inbounds [256 x i64], ptr @ZSTD_ldm_gearTab, i64 0, i64 %152
  %154 = load i64, ptr %153, align 8
  %155 = add i64 %145, %154
  store i64 %155, ptr %12, align 8
  %156 = load i64, ptr %11, align 8
  %157 = add i64 %156, 1
  store i64 %157, ptr %11, align 8
  %158 = load i64, ptr %12, align 8
  %159 = load i64, ptr %13, align 8
  %160 = and i64 %158, %159
  %161 = icmp eq i64 %160, 0
  %162 = zext i1 %161 to i32
  %163 = sext i32 %162 to i64
  %164 = icmp ne i64 %163, 0
  br i1 %164, label %165, label %180

165:                                              ; preds = %143
  %166 = load i64, ptr %11, align 8
  %167 = load ptr, ptr %9, align 8
  %168 = load ptr, ptr %10, align 8
  %169 = load i32, ptr %168, align 4
  %170 = zext i32 %169 to i64
  %171 = getelementptr inbounds i64, ptr %167, i64 %170
  store i64 %166, ptr %171, align 8
  %172 = load ptr, ptr %10, align 8
  %173 = load i32, ptr %172, align 4
  %174 = add i32 %173, 1
  store i32 %174, ptr %172, align 4
  %175 = load ptr, ptr %10, align 8
  %176 = load i32, ptr %175, align 4
  %177 = icmp eq i32 %176, 64
  br i1 %177, label %178, label %179

178:                                              ; preds = %165
  br label %228

179:                                              ; preds = %165
  br label %180

180:                                              ; preds = %179, %143
  br label %181

181:                                              ; preds = %180
  br label %20, !llvm.loop !8

182:                                              ; preds = %20
  br label %183

183:                                              ; preds = %226, %182
  %184 = load i64, ptr %11, align 8
  %185 = load i64, ptr %8, align 8
  %186 = icmp ult i64 %184, %185
  br i1 %186, label %187, label %227

187:                                              ; preds = %183
  br label %188

188:                                              ; preds = %187
  %189 = load i64, ptr %12, align 8
  %190 = shl i64 %189, 1
  %191 = load ptr, ptr %7, align 8
  %192 = load i64, ptr %11, align 8
  %193 = getelementptr inbounds i8, ptr %191, i64 %192
  %194 = load i8, ptr %193, align 1
  %195 = zext i8 %194 to i32
  %196 = and i32 %195, 255
  %197 = sext i32 %196 to i64
  %198 = getelementptr inbounds [256 x i64], ptr @ZSTD_ldm_gearTab, i64 0, i64 %197
  %199 = load i64, ptr %198, align 8
  %200 = add i64 %190, %199
  store i64 %200, ptr %12, align 8
  %201 = load i64, ptr %11, align 8
  %202 = add i64 %201, 1
  store i64 %202, ptr %11, align 8
  %203 = load i64, ptr %12, align 8
  %204 = load i64, ptr %13, align 8
  %205 = and i64 %203, %204
  %206 = icmp eq i64 %205, 0
  %207 = zext i1 %206 to i32
  %208 = sext i32 %207 to i64
  %209 = icmp ne i64 %208, 0
  br i1 %209, label %210, label %225

210:                                              ; preds = %188
  %211 = load i64, ptr %11, align 8
  %212 = load ptr, ptr %9, align 8
  %213 = load ptr, ptr %10, align 8
  %214 = load i32, ptr %213, align 4
  %215 = zext i32 %214 to i64
  %216 = getelementptr inbounds i64, ptr %212, i64 %215
  store i64 %211, ptr %216, align 8
  %217 = load ptr, ptr %10, align 8
  %218 = load i32, ptr %217, align 4
  %219 = add i32 %218, 1
  store i32 %219, ptr %217, align 4
  %220 = load ptr, ptr %10, align 8
  %221 = load i32, ptr %220, align 4
  %222 = icmp eq i32 %221, 64
  br i1 %222, label %223, label %224

223:                                              ; preds = %210
  br label %228

224:                                              ; preds = %210
  br label %225

225:                                              ; preds = %224, %188
  br label %226

226:                                              ; preds = %225
  br label %183, !llvm.loop !9

227:                                              ; preds = %183
  br label %228

228:                                              ; preds = %227, %223, %178, %139, %100, %61
  %229 = load i64, ptr %12, align 8
  %230 = load ptr, ptr %6, align 8
  %231 = getelementptr inbounds %struct.ldmRollingHashState_t, ptr %230, i32 0, i32 0
  store i64 %229, ptr %231, align 8
  %232 = load i64, ptr %11, align 8
  ret i64 %232
}