; Function Attrs: nofree norecurse nosync nounwind memory(argmem: readwrite) uwtable
define internal fastcc i64 @ZSTD_ldm_gear_feed(ptr noundef nonnull captures(none) %0, ptr noundef readonly captures(none) %1, i64 noundef %2, ptr noundef writeonly captures(none) %3, ptr noundef nonnull captures(none) %4) unnamed_addr #3 {
  %6 = load i64, ptr %0, align 8
  %7 = getelementptr inbounds nuw i8, ptr %0, i64 8
  %8 = load i64, ptr %7, align 8
  %9 = icmp ugt i64 %2, 3
  br i1 %9, label %.lr.ph, label %.preheader

.preheader:                                       ; preds = %82, %5
  %.063.lcssa = phi i64 [ %6, %5 ], [ %71, %82 ]
  %.0.lcssa = phi i64 [ 0, %5 ], [ %72, %82 ]
  %10 = icmp ult i64 %.0.lcssa, %2
  br i1 %10, label %.lr.ph76, label %.loopexit

.lr.ph:                                           ; preds = %5, %82
  %.072 = phi i64 [ %72, %82 ], [ 0, %5 ]
  %.06371 = phi i64 [ %71, %82 ], [ %6, %5 ]
  %11 = shl i64 %.06371, 1
  %12 = getelementptr inbounds i8, ptr %1, i64 %.072
  %13 = load i8, ptr %12, align 1
  %14 = zext i8 %13 to i64
  %15 = getelementptr inbounds nuw [256 x i64], ptr @ZSTD_ldm_gearTab, i64 0, i64 %14
  %16 = load i64, ptr %15, align 8
  %17 = add i64 %16, %11
  %18 = or disjoint i64 %.072, 1
  %19 = and i64 %17, %8
  %20 = icmp eq i64 %19, 0
  br i1 %20, label %21, label %28

21:                                               ; preds = %.lr.ph
  %22 = load i32, ptr %4, align 4
  %23 = zext i32 %22 to i64
  %24 = getelementptr inbounds nuw i64, ptr %3, i64 %23
  store i64 %18, ptr %24, align 8
  %25 = load i32, ptr %4, align 4
  %26 = add i32 %25, 1
  store i32 %26, ptr %4, align 4
  %27 = icmp eq i32 %26, 64
  br i1 %27, label %.loopexit, label %28

28:                                               ; preds = %21, %.lr.ph
  %29 = shl i64 %17, 1
  %30 = getelementptr inbounds i8, ptr %1, i64 %18
  %31 = load i8, ptr %30, align 1
  %32 = zext i8 %31 to i64
  %33 = getelementptr inbounds nuw [256 x i64], ptr @ZSTD_ldm_gearTab, i64 0, i64 %32
  %34 = load i64, ptr %33, align 8
  %35 = add i64 %34, %29
  %36 = or disjoint i64 %.072, 2
  %37 = and i64 %35, %8
  %38 = icmp eq i64 %37, 0
  br i1 %38, label %39, label %46

39:                                               ; preds = %28
  %40 = load i32, ptr %4, align 4
  %41 = zext i32 %40 to i64
  %42 = getelementptr inbounds nuw i64, ptr %3, i64 %41
  store i64 %36, ptr %42, align 8
  %43 = load i32, ptr %4, align 4
  %44 = add i32 %43, 1
  store i32 %44, ptr %4, align 4
  %45 = icmp eq i32 %44, 64
  br i1 %45, label %.loopexit, label %46

46:                                               ; preds = %39, %28
  %47 = shl i64 %35, 1
  %48 = getelementptr inbounds i8, ptr %1, i64 %36
  %49 = load i8, ptr %48, align 1
  %50 = zext i8 %49 to i64
  %51 = getelementptr inbounds nuw [256 x i64], ptr @ZSTD_ldm_gearTab, i64 0, i64 %50
  %52 = load i64, ptr %51, align 8
  %53 = add i64 %52, %47
  %54 = or disjoint i64 %.072, 3
  %55 = and i64 %53, %8
  %56 = icmp eq i64 %55, 0
  br i1 %56, label %57, label %64

57:                                               ; preds = %46
  %58 = load i32, ptr %4, align 4
  %59 = zext i32 %58 to i64
  %60 = getelementptr inbounds nuw i64, ptr %3, i64 %59
  store i64 %54, ptr %60, align 8
  %61 = load i32, ptr %4, align 4
  %62 = add i32 %61, 1
  store i32 %62, ptr %4, align 4
  %63 = icmp eq i32 %62, 64
  br i1 %63, label %.loopexit, label %64

64:                                               ; preds = %57, %46
  %65 = shl i64 %53, 1
  %66 = getelementptr inbounds i8, ptr %1, i64 %54
  %67 = load i8, ptr %66, align 1
  %68 = zext i8 %67 to i64
  %69 = getelementptr inbounds nuw [256 x i64], ptr @ZSTD_ldm_gearTab, i64 0, i64 %68
  %70 = load i64, ptr %69, align 8
  %71 = add i64 %70, %65
  %72 = add i64 %.072, 4
  %73 = and i64 %71, %8
  %74 = icmp eq i64 %73, 0
  br i1 %74, label %75, label %82

75:                                               ; preds = %64
  %76 = load i32, ptr %4, align 4
  %77 = zext i32 %76 to i64
  %78 = getelementptr inbounds nuw i64, ptr %3, i64 %77
  store i64 %72, ptr %78, align 8
  %79 = load i32, ptr %4, align 4
  %80 = add i32 %79, 1
  store i32 %80, ptr %4, align 4
  %81 = icmp eq i32 %80, 64
  br i1 %81, label %.loopexit, label %82

82:                                               ; preds = %64, %75
  %83 = or disjoint i64 %72, 3
  %84 = icmp ult i64 %83, %2
  br i1 %84, label %.lr.ph, label %.preheader, !llvm.loop !8

.lr.ph76:                                         ; preds = %.preheader, %.lr.ph76.backedge
  %.275 = phi i64 [ %92, %.lr.ph76.backedge ], [ %.0.lcssa, %.preheader ]
  %.26574 = phi i64 [ %91, %.lr.ph76.backedge ], [ %.063.lcssa, %.preheader ]
  %85 = shl i64 %.26574, 1
  %86 = getelementptr inbounds i8, ptr %1, i64 %.275
  %87 = load i8, ptr %86, align 1
  %88 = zext i8 %87 to i64
  %89 = getelementptr inbounds nuw [256 x i64], ptr @ZSTD_ldm_gearTab, i64 0, i64 %88
  %90 = load i64, ptr %89, align 8
  %91 = add i64 %90, %85
  %92 = add nuw i64 %.275, 1
  %93 = and i64 %91, %8
  %94 = icmp eq i64 %93, 0
  br i1 %94, label %95, label %103

95:                                               ; preds = %.lr.ph76
  %96 = load i32, ptr %4, align 4
  %97 = zext i32 %96 to i64
  %98 = getelementptr inbounds nuw i64, ptr %3, i64 %97
  store i64 %92, ptr %98, align 8
  %99 = load i32, ptr %4, align 4
  %100 = add i32 %99, 1
  store i32 %100, ptr %4, align 4
  %101 = icmp ne i32 %100, 64
  %102 = icmp ult i64 %92, %2
  %or.cond = select i1 %101, i1 %102, i1 false
  br i1 %or.cond, label %.lr.ph76.backedge, label %.loopexit

103:                                              ; preds = %.lr.ph76
  %.old = icmp ult i64 %92, %2
  br i1 %.old, label %.lr.ph76.backedge, label %.loopexit

.lr.ph76.backedge:                                ; preds = %103, %95
  br label %.lr.ph76, !llvm.loop !9

.loopexit:                                        ; preds = %75, %57, %39, %21, %95, %103, %.preheader
  %.164 = phi i64 [ %.063.lcssa, %.preheader ], [ %91, %103 ], [ %91, %95 ], [ %71, %75 ], [ %53, %57 ], [ %35, %39 ], [ %17, %21 ]
  %.1 = phi i64 [ %.0.lcssa, %.preheader ], [ %92, %103 ], [ %92, %95 ], [ %72, %75 ], [ %54, %57 ], [ %36, %39 ], [ %18, %21 ]
  store i64 %.164, ptr %0, align 8
  ret i64 %.1
}